target datalayout = "e-m:e-p270:32:32-p271:32:32-p272:64:64-i64:64-i128:128-f80:128-n8:16:32:64-S128"
target triple = "x86_64-pc-linux-gnu"

%struct.anon = type { double, double, double, double, double, double, double, double, double }
%struct._generic_N_Vector = type { ptr, ptr, ptr }
%struct._N_VectorContent_Serial = type { i64, i32, ptr }

; Function Attrs: nounwind uwtable
define internal i32 @res(double noundef %0, ptr noundef %1, ptr noundef %2, ptr noundef %3, ptr noundef %4) #0 {
  %6 = alloca double, align 8
  %7 = alloca ptr, align 8
  %8 = alloca ptr, align 8
  %9 = alloca ptr, align 8
  %10 = alloca ptr, align 8
  %11 = alloca ptr, align 8
  %12 = alloca double, align 8
  %13 = alloca double, align 8
  %14 = alloca double, align 8
  %15 = alloca double, align 8
  %16 = alloca double, align 8
  %17 = alloca double, align 8
  %18 = alloca double, align 8
  %19 = alloca double, align 8
  %20 = alloca double, align 8
  %21 = alloca double, align 8
  %22 = alloca double, align 8
  %23 = alloca double, align 8
  %24 = alloca double, align 8
  %25 = alloca double, align 8
  %26 = alloca double, align 8
  %27 = alloca double, align 8
  %28 = alloca double, align 8
  %29 = alloca double, align 8
  %30 = alloca double, align 8
  %31 = alloca double, align 8
  %32 = alloca double, align 8
  %33 = alloca double, align 8
  %34 = alloca double, align 8
  %35 = alloca double, align 8
  %36 = alloca double, align 8
  %37 = alloca double, align 8
  store double %0, ptr %6, align 8, !tbaa !4
  store ptr %1, ptr %7, align 8, !tbaa !10
  store ptr %2, ptr %8, align 8, !tbaa !10
  store ptr %3, ptr %9, align 8, !tbaa !10
  store ptr %4, ptr %10, align 8, !tbaa !8
  call void @llvm.lifetime.start.p0(i64 8, ptr %11) #6
  call void @llvm.lifetime.start.p0(i64 8, ptr %12) #6
  call void @llvm.lifetime.start.p0(i64 8, ptr %13) #6
  call void @llvm.lifetime.start.p0(i64 8, ptr %14) #6
  call void @llvm.lifetime.start.p0(i64 8, ptr %15) #6
  call void @llvm.lifetime.start.p0(i64 8, ptr %16) #6
  call void @llvm.lifetime.start.p0(i64 8, ptr %17) #6
  call void @llvm.lifetime.start.p0(i64 8, ptr %18) #6
  call void @llvm.lifetime.start.p0(i64 8, ptr %19) #6
  call void @llvm.lifetime.start.p0(i64 8, ptr %20) #6
  call void @llvm.lifetime.start.p0(i64 8, ptr %21) #6
  call void @llvm.lifetime.start.p0(i64 8, ptr %22) #6
  call void @llvm.lifetime.start.p0(i64 8, ptr %23) #6
  call void @llvm.lifetime.start.p0(i64 8, ptr %24) #6
  call void @llvm.lifetime.start.p0(i64 8, ptr %25) #6
  call void @llvm.lifetime.start.p0(i64 8, ptr %26) #6
  call void @llvm.lifetime.start.p0(i64 8, ptr %27) #6
  call void @llvm.lifetime.start.p0(i64 8, ptr %28) #6
  call void @llvm.lifetime.start.p0(i64 8, ptr %29) #6
  call void @llvm.lifetime.start.p0(i64 8, ptr %30) #6
  call void @llvm.lifetime.start.p0(i64 8, ptr %31) #6
  call void @llvm.lifetime.start.p0(i64 8, ptr %32) #6
  call void @llvm.lifetime.start.p0(i64 8, ptr %33) #6
  call void @llvm.lifetime.start.p0(i64 8, ptr %34) #6
  call void @llvm.lifetime.start.p0(i64 8, ptr %35) #6
  call void @llvm.lifetime.start.p0(i64 8, ptr %36) #6
  call void @llvm.lifetime.start.p0(i64 8, ptr %37) #6
  %38 = load ptr, ptr %10, align 8, !tbaa !8
  store ptr %38, ptr %11, align 8, !tbaa !8
  %39 = load ptr, ptr %11, align 8, !tbaa !8
  %40 = getelementptr inbounds nuw %struct.anon, ptr %39, i32 0, i32 0
  %41 = load double, ptr %40, align 8, !tbaa !18
  store double %41, ptr %12, align 8, !tbaa !4
  %42 = load ptr, ptr %11, align 8, !tbaa !8
  %43 = getelementptr inbounds nuw %struct.anon, ptr %42, i32 0, i32 1
  %44 = load double, ptr %43, align 8, !tbaa !20
  store double %44, ptr %13, align 8, !tbaa !4
  %45 = load ptr, ptr %11, align 8, !tbaa !8
  %46 = getelementptr inbounds nuw %struct.anon, ptr %45, i32 0, i32 2
  %47 = load double, ptr %46, align 8, !tbaa !21
  store double %47, ptr %14, align 8, !tbaa !4
  %48 = load ptr, ptr %11, align 8, !tbaa !8
  %49 = getelementptr inbounds nuw %struct.anon, ptr %48, i32 0, i32 3
  %50 = load double, ptr %49, align 8, !tbaa !22
  store double %50, ptr %15, align 8, !tbaa !4
  %51 = load ptr, ptr %11, align 8, !tbaa !8
  %52 = getelementptr inbounds nuw %struct.anon, ptr %51, i32 0, i32 4
  %53 = load double, ptr %52, align 8, !tbaa !23
  store double %53, ptr %16, align 8, !tbaa !4
  %54 = load ptr, ptr %11, align 8, !tbaa !8
  %55 = getelementptr inbounds nuw %struct.anon, ptr %54, i32 0, i32 5
  %56 = load double, ptr %55, align 8, !tbaa !24
  store double %56, ptr %17, align 8, !tbaa !4
  %57 = load ptr, ptr %11, align 8, !tbaa !8
  %58 = getelementptr inbounds nuw %struct.anon, ptr %57, i32 0, i32 6
  %59 = load double, ptr %58, align 8, !tbaa !25
  store double %59, ptr %18, align 8, !tbaa !4
  %60 = load ptr, ptr %11, align 8, !tbaa !8
  %61 = getelementptr inbounds nuw %struct.anon, ptr %60, i32 0, i32 7
  %62 = load double, ptr %61, align 8, !tbaa !26
  store double %62, ptr %19, align 8, !tbaa !4
  %63 = load ptr, ptr %11, align 8, !tbaa !8
  %64 = getelementptr inbounds nuw %struct.anon, ptr %63, i32 0, i32 8
  %65 = load double, ptr %64, align 8, !tbaa !27
  store double %65, ptr %20, align 8, !tbaa !4
  %66 = load ptr, ptr %7, align 8, !tbaa !10
  %67 = getelementptr inbounds nuw %struct._generic_N_Vector, ptr %66, i32 0, i32 0
  %68 = load ptr, ptr %67, align 8, !tbaa !30
  %69 = getelementptr inbounds nuw %struct._N_VectorContent_Serial, ptr %68, i32 0, i32 2
  %70 = load ptr, ptr %69, align 8, !tbaa !33
  %71 = getelementptr inbounds double, ptr %70, i64 0
  %72 = load double, ptr %71, align 8, !tbaa !4
  store double %72, ptr %21, align 8, !tbaa !4
  %73 = load ptr, ptr %7, align 8, !tbaa !10
  %74 = getelementptr inbounds nuw %struct._generic_N_Vector, ptr %73, i32 0, i32 0
  %75 = load ptr, ptr %74, align 8, !tbaa !30
  %76 = getelementptr inbounds nuw %struct._N_VectorContent_Serial, ptr %75, i32 0, i32 2
  %77 = load ptr, ptr %76, align 8, !tbaa !33
  %78 = getelementptr inbounds double, ptr %77, i64 1
  %79 = load double, ptr %78, align 8, !tbaa !4
  store double %79, ptr %22, align 8, !tbaa !4
  %80 = load ptr, ptr %7, align 8, !tbaa !10
  %81 = getelementptr inbounds nuw %struct._generic_N_Vector, ptr %80, i32 0, i32 0
  %82 = load ptr, ptr %81, align 8, !tbaa !30
  %83 = getelementptr inbounds nuw %struct._N_VectorContent_Serial, ptr %82, i32 0, i32 2
  %84 = load ptr, ptr %83, align 8, !tbaa !33
  %85 = getelementptr inbounds double, ptr %84, i64 2
  %86 = load double, ptr %85, align 8, !tbaa !4
  store double %86, ptr %23, align 8, !tbaa !4
  %87 = load ptr, ptr %7, align 8, !tbaa !10
  %88 = getelementptr inbounds nuw %struct._generic_N_Vector, ptr %87, i32 0, i32 0
  %89 = load ptr, ptr %88, align 8, !tbaa !30
  %90 = getelementptr inbounds nuw %struct._N_VectorContent_Serial, ptr %89, i32 0, i32 2
  %91 = load ptr, ptr %90, align 8, !tbaa !33
  %92 = getelementptr inbounds double, ptr %91, i64 3
  %93 = load double, ptr %92, align 8, !tbaa !4
  store double %93, ptr %24, align 8, !tbaa !4
  %94 = load ptr, ptr %7, align 8, !tbaa !10
  %95 = getelementptr inbounds nuw %struct._generic_N_Vector, ptr %94, i32 0, i32 0
  %96 = load ptr, ptr %95, align 8, !tbaa !30
  %97 = getelementptr inbounds nuw %struct._N_VectorContent_Serial, ptr %96, i32 0, i32 2
  %98 = load ptr, ptr %97, align 8, !tbaa !33
  %99 = getelementptr inbounds double, ptr %98, i64 4
  %100 = load double, ptr %99, align 8, !tbaa !4
  store double %100, ptr %25, align 8, !tbaa !4
  %101 = load ptr, ptr %7, align 8, !tbaa !10
  %102 = getelementptr inbounds nuw %struct._generic_N_Vector, ptr %101, i32 0, i32 0
  %103 = load ptr, ptr %102, align 8, !tbaa !30
  %104 = getelementptr inbounds nuw %struct._N_VectorContent_Serial, ptr %103, i32 0, i32 2
  %105 = load ptr, ptr %104, align 8, !tbaa !33
  %106 = getelementptr inbounds double, ptr %105, i64 5
  %107 = load double, ptr %106, align 8, !tbaa !4
  store double %107, ptr %26, align 8, !tbaa !4
  %108 = load ptr, ptr %8, align 8, !tbaa !10
  %109 = getelementptr inbounds nuw %struct._generic_N_Vector, ptr %108, i32 0, i32 0
  %110 = load ptr, ptr %109, align 8, !tbaa !30
  %111 = getelementptr inbounds nuw %struct._N_VectorContent_Serial, ptr %110, i32 0, i32 2
  %112 = load ptr, ptr %111, align 8, !tbaa !33
  %113 = getelementptr inbounds double, ptr %112, i64 0
  %114 = load double, ptr %113, align 8, !tbaa !4
  store double %114, ptr %27, align 8, !tbaa !4
  %115 = load ptr, ptr %8, align 8, !tbaa !10
  %116 = getelementptr inbounds nuw %struct._generic_N_Vector, ptr %115, i32 0, i32 0
  %117 = load ptr, ptr %116, align 8, !tbaa !30
  %118 = getelementptr inbounds nuw %struct._N_VectorContent_Serial, ptr %117, i32 0, i32 2
  %119 = load ptr, ptr %118, align 8, !tbaa !33
  %120 = getelementptr inbounds double, ptr %119, i64 1
  %121 = load double, ptr %120, align 8, !tbaa !4
  store double %121, ptr %28, align 8, !tbaa !4
  %122 = load ptr, ptr %8, align 8, !tbaa !10
  %123 = getelementptr inbounds nuw %struct._generic_N_Vector, ptr %122, i32 0, i32 0
  %124 = load ptr, ptr %123, align 8, !tbaa !30
  %125 = getelementptr inbounds nuw %struct._N_VectorContent_Serial, ptr %124, i32 0, i32 2
  %126 = load ptr, ptr %125, align 8, !tbaa !33
  %127 = getelementptr inbounds double, ptr %126, i64 2
  %128 = load double, ptr %127, align 8, !tbaa !4
  store double %128, ptr %29, align 8, !tbaa !4
  %129 = load ptr, ptr %8, align 8, !tbaa !10
  %130 = getelementptr inbounds nuw %struct._generic_N_Vector, ptr %129, i32 0, i32 0
  %131 = load ptr, ptr %130, align 8, !tbaa !30
  %132 = getelementptr inbounds nuw %struct._N_VectorContent_Serial, ptr %131, i32 0, i32 2
  %133 = load ptr, ptr %132, align 8, !tbaa !33
  %134 = getelementptr inbounds double, ptr %133, i64 3
  %135 = load double, ptr %134, align 8, !tbaa !4
  store double %135, ptr %30, align 8, !tbaa !4
  %136 = load ptr, ptr %8, align 8, !tbaa !10
  %137 = getelementptr inbounds nuw %struct._generic_N_Vector, ptr %136, i32 0, i32 0
  %138 = load ptr, ptr %137, align 8, !tbaa !30
  %139 = getelementptr inbounds nuw %struct._N_VectorContent_Serial, ptr %138, i32 0, i32 2
  %140 = load ptr, ptr %139, align 8, !tbaa !33
  %141 = getelementptr inbounds double, ptr %140, i64 4
  %142 = load double, ptr %141, align 8, !tbaa !4
  store double %142, ptr %31, align 8, !tbaa !4
  %143 = load double, ptr %12, align 8, !tbaa !4
  %144 = load double, ptr %21, align 8, !tbaa !4
  %145 = call double @SUNRpowerI(double noundef %144, i32 noundef 4)
  %146 = fmul double %143, %145
  %147 = load double, ptr %22, align 8, !tbaa !4
  %148 = call double @sqrt(double noundef %147) #6, !tbaa !16
  %149 = fmul double %146, %148
  store double %149, ptr %32, align 8, !tbaa !4
  %150 = load double, ptr %13, align 8, !tbaa !4
  %151 = load double, ptr %23, align 8, !tbaa !4
  %152 = fmul double %150, %151
  %153 = load double, ptr %24, align 8, !tbaa !4
  %154 = fmul double %152, %153
  store double %154, ptr %33, align 8, !tbaa !4
  %155 = load double, ptr %13, align 8, !tbaa !4
  %156 = load double, ptr %16, align 8, !tbaa !4
  %157 = fdiv double %155, %156
  %158 = load double, ptr %21, align 8, !tbaa !4
  %159 = fmul double %157, %158
  %160 = load double, ptr %25, align 8, !tbaa !4
  %161 = fmul double %159, %160
  store double %161, ptr %34, align 8, !tbaa !4
  %162 = load double, ptr %14, align 8, !tbaa !4
  %163 = load double, ptr %21, align 8, !tbaa !4
  %164 = fmul double %162, %163
  %165 = load double, ptr %24, align 8, !tbaa !4
  %166 = fmul double %164, %165
  %167 = load double, ptr %24, align 8, !tbaa !4
  %168 = fmul double %166, %167
  store double %168, ptr %35, align 8, !tbaa !4
  %169 = load double, ptr %15, align 8, !tbaa !4
  %170 = load double, ptr %26, align 8, !tbaa !4
  %171 = fmul double %169, %170
  %172 = load double, ptr %26, align 8, !tbaa !4
  %173 = fmul double %171, %172
  %174 = load double, ptr %22, align 8, !tbaa !4
  %175 = call double @sqrt(double noundef %174) #6, !tbaa !16
  %176 = fmul double %173, %175
  store double %176, ptr %36, align 8, !tbaa !4
  %177 = load double, ptr %17, align 8, !tbaa !4
  %178 = load double, ptr %19, align 8, !tbaa !4
  %179 = load double, ptr %20, align 8, !tbaa !4
  %180 = fdiv double %178, %179
  %181 = load double, ptr %22, align 8, !tbaa !4
  %182 = fsub double %180, %181
  %183 = fmul double %177, %182
  store double %183, ptr %37, align 8, !tbaa !4
  %184 = load double, ptr %27, align 8, !tbaa !4
  %185 = load double, ptr %32, align 8, !tbaa !4
  %186 = call double @llvm.fmuladd.f64(double 2.000000e+00, double %185, double %184)
  %187 = load double, ptr %33, align 8, !tbaa !4
  %188 = fsub double %186, %187
  %189 = load double, ptr %34, align 8, !tbaa !4
  %190 = fadd double %188, %189
  %191 = load double, ptr %35, align 8, !tbaa !4
  %192 = fadd double %190, %191
  %193 = load ptr, ptr %9, align 8, !tbaa !10
  %194 = getelementptr inbounds nuw %struct._generic_N_Vector, ptr %193, i32 0, i32 0
  %195 = load ptr, ptr %194, align 8, !tbaa !30
  %196 = getelementptr inbounds nuw %struct._N_VectorContent_Serial, ptr %195, i32 0, i32 2
  %197 = load ptr, ptr %196, align 8, !tbaa !33
  %198 = getelementptr inbounds double, ptr %197, i64 0
  store double %192, ptr %198, align 8, !tbaa !4
  %199 = load double, ptr %28, align 8, !tbaa !4
  %200 = load double, ptr %32, align 8, !tbaa !4
  %201 = call double @llvm.fmuladd.f64(double 5.000000e-01, double %200, double %199)
  %202 = load double, ptr %35, align 8, !tbaa !4
  %203 = fadd double %201, %202
  %204 = load double, ptr %36, align 8, !tbaa !4
  %205 = call double @llvm.fmuladd.f64(double 5.000000e-01, double %204, double %203)
  %206 = load double, ptr %37, align 8, !tbaa !4
  %207 = fsub double %205, %206
  %208 = load ptr, ptr %9, align 8, !tbaa !10
  %209 = getelementptr inbounds nuw %struct._generic_N_Vector, ptr %208, i32 0, i32 0
  %210 = load ptr, ptr %209, align 8, !tbaa !30
  %211 = getelementptr inbounds nuw %struct._N_VectorContent_Serial, ptr %210, i32 0, i32 2
  %212 = load ptr, ptr %211, align 8, !tbaa !33
  %213 = getelementptr inbounds double, ptr %212, i64 1
  store double %207, ptr %213, align 8, !tbaa !4
  %214 = load double, ptr %29, align 8, !tbaa !4
  %215 = load double, ptr %32, align 8, !tbaa !4
  %216 = fsub double %214, %215
  %217 = load double, ptr %33, align 8, !tbaa !4
  %218 = fadd double %216, %217
  %219 = load double, ptr %34, align 8, !tbaa !4
  %220 = fsub double %218, %219
  %221 = load ptr, ptr %9, align 8, !tbaa !10
  %222 = getelementptr inbounds nuw %struct._generic_N_Vector, ptr %221, i32 0, i32 0
  %223 = load ptr, ptr %222, align 8, !tbaa !30
  %224 = getelementptr inbounds nuw %struct._N_VectorContent_Serial, ptr %223, i32 0, i32 2
  %225 = load ptr, ptr %224, align 8, !tbaa !33
  %226 = getelementptr inbounds double, ptr %225, i64 2
  store double %220, ptr %226, align 8, !tbaa !4
  %227 = load double, ptr %30, align 8, !tbaa !4
  %228 = load double, ptr %33, align 8, !tbaa !4
  %229 = fadd double %227, %228
  %230 = load double, ptr %34, align 8, !tbaa !4
  %231 = fsub double %229, %230
  %232 = load double, ptr %35, align 8, !tbaa !4
  %233 = call double @llvm.fmuladd.f64(double 2.000000e+00, double %232, double %231)
  %234 = load ptr, ptr %9, align 8, !tbaa !10
  %235 = getelementptr inbounds nuw %struct._generic_N_Vector, ptr %234, i32 0, i32 0
  %236 = load ptr, ptr %235, align 8, !tbaa !30
  %237 = getelementptr inbounds nuw %struct._N_VectorContent_Serial, ptr %236, i32 0, i32 2
  %238 = load ptr, ptr %237, align 8, !tbaa !33
  %239 = getelementptr inbounds double, ptr %238, i64 3
  store double %233, ptr %239, align 8, !tbaa !4
  %240 = load double, ptr %31, align 8, !tbaa !4
  %241 = load double, ptr %33, align 8, !tbaa !4
  %242 = fsub double %240, %241
  %243 = load double, ptr %34, align 8, !tbaa !4
  %244 = fadd double %242, %243
  %245 = load double, ptr %36, align 8, !tbaa !4
  %246 = fsub double %244, %245
  %247 = load ptr, ptr %9, align 8, !tbaa !10
  %248 = getelementptr inbounds nuw %struct._generic_N_Vector, ptr %247, i32 0, i32 0
  %249 = load ptr, ptr %248, align 8, !tbaa !30
  %250 = getelementptr inbounds nuw %struct._N_VectorContent_Serial, ptr %249, i32 0, i32 2
  %251 = load ptr, ptr %250, align 8, !tbaa !33
  %252 = getelementptr inbounds double, ptr %251, i64 4
  store double %246, ptr %252, align 8, !tbaa !4
  %253 = load double, ptr %18, align 8, !tbaa !4
  %254 = load double, ptr %21, align 8, !tbaa !4
  %255 = fmul double %253, %254
  %256 = load double, ptr %24, align 8, !tbaa !4
  %257 = load double, ptr %26, align 8, !tbaa !4
  %258 = fneg double %257
  %259 = call double @llvm.fmuladd.f64(double %255, double %256, double %258)
  %260 = load ptr, ptr %9, align 8, !tbaa !10
  %261 = getelementptr inbounds nuw %struct._generic_N_Vector, ptr %260, i32 0, i32 0
  %262 = load ptr, ptr %261, align 8, !tbaa !30
  %263 = getelementptr inbounds nuw %struct._N_VectorContent_Serial, ptr %262, i32 0, i32 2
  %264 = load ptr, ptr %263, align 8, !tbaa !33
  %265 = getelementptr inbounds double, ptr %264, i64 5
  store double %259, ptr %265, align 8, !tbaa !4
  call void @llvm.lifetime.end.p0(i64 8, ptr %37) #6
  call void @llvm.lifetime.end.p0(i64 8, ptr %36) #6
  call void @llvm.lifetime.end.p0(i64 8, ptr %35) #6
  call void @llvm.lifetime.end.p0(i64 8, ptr %34) #6
  call void @llvm.lifetime.end.p0(i64 8, ptr %33) #6
  call void @llvm.lifetime.end.p0(i64 8, ptr %32) #6
  call void @llvm.lifetime.end.p0(i64 8, ptr %31) #6
  call void @llvm.lifetime.end.p0(i64 8, ptr %30) #6
  call void @llvm.lifetime.end.p0(i64 8, ptr %29) #6
  call void @llvm.lifetime.end.p0(i64 8, ptr %28) #6
  call void @llvm.lifetime.end.p0(i64 8, ptr %27) #6
  call void @llvm.lifetime.end.p0(i64 8, ptr %26) #6
  call void @llvm.lifetime.end.p0(i64 8, ptr %25) #6
  call void @llvm.lifetime.end.p0(i64 8, ptr %24) #6
  call void @llvm.lifetime.end.p0(i64 8, ptr %23) #6
  call void @llvm.lifetime.end.p0(i64 8, ptr %22) #6
  call void @llvm.lifetime.end.p0(i64 8, ptr %21) #6
  call void @llvm.lifetime.end.p0(i64 8, ptr %20) #6
  call void @llvm.lifetime.end.p0(i64 8, ptr %19) #6
  call void @llvm.lifetime.end.p0(i64 8, ptr %18) #6
  call void @llvm.lifetime.end.p0(i64 8, ptr %17) #6
  call void @llvm.lifetime.end.p0(i64 8, ptr %16) #6
  call void @llvm.lifetime.end.p0(i64 8, ptr %15) #6
  call void @llvm.lifetime.end.p0(i64 8, ptr %14) #6
  call void @llvm.lifetime.end.p0(i64 8, ptr %13) #6
  call void @llvm.lifetime.end.p0(i64 8, ptr %12) #6
  call void @llvm.lifetime.end.p0(i64 8, ptr %11) #6
  ret i32 0
}