; Function Attrs: nounwind uwtable
define internal noundef i32 @res(double %0, ptr noundef readonly captures(none) %1, ptr noundef readonly captures(none) %2, ptr noundef readonly captures(none) %3, ptr noundef readonly captures(none) %4) #0 {
  %6 = load double, ptr %4, align 8, !tbaa !9
  %7 = getelementptr inbounds nuw i8, ptr %4, i64 8
  %8 = load double, ptr %7, align 8, !tbaa !12
  %9 = getelementptr inbounds nuw i8, ptr %4, i64 16
  %10 = load double, ptr %9, align 8, !tbaa !13
  %11 = getelementptr inbounds nuw i8, ptr %4, i64 24
  %12 = load double, ptr %11, align 8, !tbaa !14
  %13 = getelementptr inbounds nuw i8, ptr %4, i64 32
  %14 = load double, ptr %13, align 8, !tbaa !15
  %15 = getelementptr inbounds nuw i8, ptr %4, i64 40
  %16 = load double, ptr %15, align 8, !tbaa !16
  %17 = getelementptr inbounds nuw i8, ptr %4, i64 48
  %18 = load double, ptr %17, align 8, !tbaa !17
  %19 = getelementptr inbounds nuw i8, ptr %4, i64 56
  %20 = load double, ptr %19, align 8, !tbaa !18
  %21 = getelementptr inbounds nuw i8, ptr %4, i64 64
  %22 = load double, ptr %21, align 8, !tbaa !19
  %23 = load ptr, ptr %1, align 8, !tbaa !22
  %24 = getelementptr inbounds nuw i8, ptr %23, i64 16
  %25 = load ptr, ptr %24, align 8, !tbaa !25
  %26 = load double, ptr %25, align 8, !tbaa !30
  %27 = getelementptr inbounds nuw i8, ptr %25, i64 8
  %28 = load double, ptr %27, align 8, !tbaa !30
  %29 = getelementptr inbounds nuw i8, ptr %25, i64 16
  %30 = load double, ptr %29, align 8, !tbaa !30
  %31 = getelementptr inbounds nuw i8, ptr %25, i64 24
  %32 = load double, ptr %31, align 8, !tbaa !30
  %33 = getelementptr inbounds nuw i8, ptr %25, i64 32
  %34 = load double, ptr %33, align 8, !tbaa !30
  %35 = getelementptr inbounds nuw i8, ptr %25, i64 40
  %36 = load double, ptr %35, align 8, !tbaa !30
  %37 = load ptr, ptr %2, align 8, !tbaa !22
  %38 = getelementptr inbounds nuw i8, ptr %37, i64 16
  %39 = load ptr, ptr %38, align 8, !tbaa !25
  %40 = load double, ptr %39, align 8, !tbaa !30
  %41 = getelementptr inbounds nuw i8, ptr %39, i64 8
  %42 = load double, ptr %41, align 8, !tbaa !30
  %43 = getelementptr inbounds nuw i8, ptr %39, i64 16
  %44 = load double, ptr %43, align 8, !tbaa !30
  %45 = getelementptr inbounds nuw i8, ptr %39, i64 24
  %46 = load double, ptr %45, align 8, !tbaa !30
  %47 = getelementptr inbounds nuw i8, ptr %39, i64 32
  %48 = load double, ptr %47, align 8, !tbaa !30
  %49 = tail call double @SUNRpowerI(double noundef %26, i32 noundef 4) #12
  %50 = fmul double %6, %49
  %51 = tail call double @sqrt(double noundef %28) #12, !tbaa !31
  %52 = fmul double %50, %51
  %53 = fmul double %8, %30
  %54 = fmul double %53, %32
  %55 = fdiv double %8, %14
  %56 = fmul double %55, %26
  %57 = fmul double %56, %34
  %58 = fmul double %10, %26
  %59 = fmul double %58, %32
  %60 = fmul double %32, %59
  %61 = fmul double %12, %36
  %62 = fmul double %36, %61
  %63 = tail call double @sqrt(double noundef %28) #12, !tbaa !31
  %64 = fmul double %62, %63
  %65 = fdiv double %20, %22
  %66 = fsub double %65, %28
  %67 = fmul double %16, %66
  %68 = tail call double @llvm.fmuladd.f64(double %52, double 2.000000e+00, double %40)
  %69 = fsub double %68, %54
  %70 = fadd double %57, %69
  %71 = fadd double %60, %70
  %72 = load ptr, ptr %3, align 8, !tbaa !22
  %73 = getelementptr inbounds nuw i8, ptr %72, i64 16
  %74 = load ptr, ptr %73, align 8, !tbaa !25
  store double %71, ptr %74, align 8, !tbaa !30
  %75 = tail call double @llvm.fmuladd.f64(double %52, double 5.000000e-01, double %42)
  %76 = fadd double %60, %75
  %77 = tail call double @llvm.fmuladd.f64(double %64, double 5.000000e-01, double %76)
  %78 = fsub double %77, %67
  %79 = getelementptr inbounds nuw i8, ptr %74, i64 8
  store double %78, ptr %79, align 8, !tbaa !30
  %80 = fsub double %44, %52
  %81 = fadd double %54, %80
  %82 = fsub double %81, %57
  %83 = getelementptr inbounds nuw i8, ptr %74, i64 16
  store double %82, ptr %83, align 8, !tbaa !30
  %84 = fadd double %54, %46
  %85 = fsub double %84, %57
  %86 = tail call double @llvm.fmuladd.f64(double %60, double 2.000000e+00, double %85)
  %87 = getelementptr inbounds nuw i8, ptr %74, i64 24
  store double %86, ptr %87, align 8, !tbaa !30
  %88 = fsub double %48, %54
  %89 = fadd double %57, %88
  %90 = fsub double %89, %64
  %91 = getelementptr inbounds nuw i8, ptr %74, i64 32
  store double %90, ptr %91, align 8, !tbaa !30
  %92 = fmul double %18, %26
  %93 = fneg double %36
  %94 = tail call double @llvm.fmuladd.f64(double %92, double %32, double %93)
  %95 = getelementptr inbounds nuw i8, ptr %74, i64 40
  store double %94, ptr %95, align 8, !tbaa !30
  ret i32 0
}